; Function Attrs: nounwind uwtable
define internal fastcc range(i32 0, 2) i32 @sct_ctx_update(ptr noundef nonnull %0, ptr noundef readonly captures(none) %1, ptr noundef readonly captures(none) %2) unnamed_addr #0 {
  %4 = alloca [12 x i8], align 1
  call void @llvm.lifetime.start.p0(i64 12, ptr nonnull %4) #4
  %5 = getelementptr inbounds nuw i8, ptr %2, i64 88
  %6 = load i32, ptr %5, align 8, !tbaa !12
  switch i32 %6, label %11 [
    i32 -1, label %82
    i32 1, label %7
  ]

7:                                                ; preds = %3
  %8 = getelementptr inbounds nuw i8, ptr %1, i64 24
  %9 = load ptr, ptr %8, align 8, !tbaa !15
  %10 = icmp eq ptr %9, null
  br i1 %10, label %82, label %11

11:                                               ; preds = %3, %7
  %12 = load i32, ptr %2, align 8, !tbaa !16
  %13 = trunc i32 %12 to i8
  %14 = getelementptr inbounds nuw i8, ptr %4, i64 1
  store i8 %13, ptr %4, align 1, !tbaa !27
  %15 = getelementptr inbounds nuw i8, ptr %4, i64 2
  store i8 0, ptr %14, align 1, !tbaa !27
  %16 = getelementptr inbounds nuw i8, ptr %2, i64 40
  %17 = load i64, ptr %16, align 8, !tbaa !21
  %18 = lshr i64 %17, 56
  %19 = trunc nuw i64 %18 to i8
  %20 = getelementptr inbounds nuw i8, ptr %4, i64 3
  store i8 %19, ptr %15, align 1, !tbaa !27
  %21 = lshr i64 %17, 48
  %22 = trunc i64 %21 to i8
  %23 = getelementptr inbounds nuw i8, ptr %4, i64 4
  store i8 %22, ptr %20, align 1, !tbaa !27
  %24 = lshr i64 %17, 40
  %25 = trunc i64 %24 to i8
  %26 = getelementptr inbounds nuw i8, ptr %4, i64 5
  store i8 %25, ptr %23, align 1, !tbaa !27
  %27 = lshr i64 %17, 32
  %28 = trunc i64 %27 to i8
  %29 = getelementptr inbounds nuw i8, ptr %4, i64 6
  store i8 %28, ptr %26, align 1, !tbaa !27
  %30 = lshr i64 %17, 24
  %31 = trunc i64 %30 to i8
  %32 = getelementptr inbounds nuw i8, ptr %4, i64 7
  store i8 %31, ptr %29, align 1, !tbaa !27
  %33 = lshr i64 %17, 16
  %34 = trunc i64 %33 to i8
  %35 = getelementptr inbounds nuw i8, ptr %4, i64 8
  store i8 %34, ptr %32, align 1, !tbaa !27
  %36 = lshr i64 %17, 8
  %37 = trunc i64 %36 to i8
  %38 = getelementptr inbounds nuw i8, ptr %4, i64 9
  store i8 %37, ptr %35, align 1, !tbaa !27
  %39 = trunc i64 %17 to i8
  %40 = getelementptr inbounds nuw i8, ptr %4, i64 10
  store i8 %39, ptr %38, align 1, !tbaa !27
  %41 = lshr i32 %6, 8
  %42 = trunc i32 %41 to i8
  store i8 %42, ptr %40, align 1, !tbaa !27
  %43 = trunc i32 %6 to i8
  %44 = getelementptr inbounds nuw i8, ptr %4, i64 11
  store i8 %43, ptr %44, align 1, !tbaa !27
  %45 = call i32 @EVP_DigestUpdate(ptr noundef nonnull %0, ptr noundef nonnull %4, i64 noundef 12) #4
  %.not = icmp eq i32 %45, 0
  br i1 %.not, label %82, label %46

46:                                               ; preds = %11
  %47 = load i32, ptr %5, align 8, !tbaa !12
  %48 = icmp eq i32 %47, 0
  br i1 %48, label %55, label %49

49:                                               ; preds = %46
  %50 = getelementptr inbounds nuw i8, ptr %1, i64 24
  %51 = load ptr, ptr %50, align 8, !tbaa !15
  %52 = getelementptr inbounds nuw i8, ptr %1, i64 32
  %53 = load i64, ptr %52, align 8, !tbaa !28
  %54 = call i32 @EVP_DigestUpdate(ptr noundef nonnull %0, ptr noundef %51, i64 noundef %53) #4
  %.not63 = icmp eq i32 %54, 0
  br i1 %.not63, label %82, label %55

55:                                               ; preds = %49, %46
  %.sink69 = phi i64 [ 40, %46 ], [ 56, %49 ]
  %.sink = phi i64 [ 48, %46 ], [ 64, %49 ]
  %56 = getelementptr inbounds nuw i8, ptr %1, i64 %.sink69
  %57 = getelementptr inbounds nuw i8, ptr %1, i64 %.sink
  %.0 = load i64, ptr %57, align 8, !tbaa !29
  %.059 = load ptr, ptr %56, align 8, !tbaa !30
  %58 = icmp eq ptr %.059, null
  br i1 %58, label %82, label %59

59:                                               ; preds = %55
  %60 = lshr i64 %.0, 16
  %61 = trunc i64 %60 to i8
  store i8 %61, ptr %4, align 1, !tbaa !27
  %62 = lshr i64 %.0, 8
  %63 = trunc i64 %62 to i8
  store i8 %63, ptr %14, align 1, !tbaa !27
  %64 = trunc i64 %.0 to i8
  store i8 %64, ptr %15, align 1, !tbaa !27
  %65 = call i32 @EVP_DigestUpdate(ptr noundef nonnull %0, ptr noundef nonnull %4, i64 noundef 3) #4
  %.not64 = icmp eq i32 %65, 0
  br i1 %.not64, label %82, label %66

66:                                               ; preds = %59
  %67 = call i32 @EVP_DigestUpdate(ptr noundef nonnull %0, ptr noundef nonnull %.059, i64 noundef %.0) #4
  %.not65 = icmp eq i32 %67, 0
  br i1 %.not65, label %82, label %68

68:                                               ; preds = %66
  %69 = getelementptr inbounds nuw i8, ptr %2, i64 56
  %70 = load i64, ptr %69, align 8, !tbaa !31
  %71 = lshr i64 %70, 8
  %72 = trunc i64 %71 to i8
  store i8 %72, ptr %4, align 1, !tbaa !27
  %73 = trunc i64 %70 to i8
  store i8 %73, ptr %14, align 1, !tbaa !27
  %74 = call i32 @EVP_DigestUpdate(ptr noundef nonnull %0, ptr noundef nonnull %4, i64 noundef 2) #4
  %.not66 = icmp eq i32 %74, 0
  br i1 %.not66, label %82, label %75

75:                                               ; preds = %68
  %76 = load i64, ptr %69, align 8, !tbaa !31
  %.not67 = icmp eq i64 %76, 0
  br i1 %.not67, label %81, label %77

77:                                               ; preds = %75
  %78 = getelementptr inbounds nuw i8, ptr %2, i64 48
  %79 = load ptr, ptr %78, align 8, !tbaa !32
  %80 = call i32 @EVP_DigestUpdate(ptr noundef nonnull %0, ptr noundef %79, i64 noundef %76) #4
  %.not68 = icmp eq i32 %80, 0
  br i1 %.not68, label %82, label %81

81:                                               ; preds = %77, %75
  br label %82

82:                                               ; preds = %77, %68, %66, %59, %55, %49, %11, %7, %3, %81
  %.060 = phi i32 [ 1, %81 ], [ 0, %3 ], [ 0, %7 ], [ 0, %11 ], [ 0, %49 ], [ 0, %55 ], [ 0, %59 ], [ 0, %66 ], [ 0, %68 ], [ 0, %77 ]
  call void @llvm.lifetime.end.p0(i64 12, ptr nonnull %4) #4
  ret i32 %.060
}